target datalayout = "e-m:e-p270:32:32-p271:32:32-p272:64:64-i64:64-i128:128-f80:128-n8:16:32:64-S128"
target triple = "x86_64-pc-linux-gnu"

%"class.cv::tinyxml2::StrPair" = type { i32, ptr, ptr }
%"class.cv::tinyxml2::XMLNode" = type { ptr, ptr, ptr, %"class.cv::tinyxml2::StrPair", ptr, ptr, ptr, ptr, ptr }

; Function Attrs: mustprogress nounwind uwtable
define linkonce_odr hidden noundef ptr @_ZNK2cv8tinyxml27XMLNode11NextSiblingEv(ptr noundef nonnull align 8 dereferenceable(88) %0) #0 comdat align 2 {
  %2 = alloca ptr, align 8
  store ptr %0, ptr %2, align 8, !tbaa !55
  %3 = load ptr, ptr %2, align 8
  %4 = getelementptr inbounds nuw %"class.cv::tinyxml2::XMLNode", ptr %3, i32 0, i32 7
  %5 = load ptr, ptr %4, align 8, !tbaa !114
  ret ptr %5
}

; Function Attrs: mustprogress nounwind uwtable
define linkonce_odr hidden noundef ptr @_ZNK2cv8tinyxml27XMLNode10FirstChildEv(ptr noundef nonnull align 8 dereferenceable(88) %0) #0 comdat align 2 {
  %2 = alloca ptr, align 8
  store ptr %0, ptr %2, align 8, !tbaa !55
  %3 = load ptr, ptr %2, align 8
  %4 = getelementptr inbounds nuw %"class.cv::tinyxml2::XMLNode", ptr %3, i32 0, i32 4
  %5 = load ptr, ptr %4, align 8, !tbaa !113
  ret ptr %5
}

; Function Attrs: mustprogress uwtable
define hidden noundef zeroext i1 @_ZNK2cv8tinyxml211XMLDocument6AcceptEPNS0_10XMLVisitorE(ptr noundef nonnull align 8 dereferenceable(640) %0, ptr noundef %1) unnamed_addr #3 align 2 {
  %3 = alloca ptr, align 8
  %4 = alloca ptr, align 8
  %5 = alloca ptr, align 8
  %6 = alloca i32, align 4
  store ptr %0, ptr %3, align 8, !tbaa !50
  store ptr %1, ptr %4, align 8, !tbaa !110
  %7 = load ptr, ptr %3, align 8
  %8 = load ptr, ptr %4, align 8, !tbaa !110
  %9 = load ptr, ptr %8, align 8, !tbaa !92
  %10 = getelementptr inbounds ptr, ptr %9, i64 2
  %11 = load ptr, ptr %10, align 8
  %12 = call noundef zeroext i1 %11(ptr noundef nonnull align 8 dereferenceable(8) %8, ptr noundef nonnull align 8 dereferenceable(640) %7)
  br i1 %12, label %13, label %33

13:                                               ; preds = %2
  call void @llvm.lifetime.start.p0(i64 8, ptr %5) #17
  %14 = call noundef ptr @_ZNK2cv8tinyxml27XMLNode10FirstChildEv(ptr noundef nonnull align 8 dereferenceable(88) %7)
  store ptr %14, ptr %5, align 8, !tbaa !55
  br label %15

15:                                               ; preds = %28, %13
  %16 = load ptr, ptr %5, align 8, !tbaa !55
  %17 = icmp ne ptr %16, null
  br i1 %17, label %19, label %18

18:                                               ; preds = %15
  store i32 2, ptr %6, align 4
  br label %31

19:                                               ; preds = %15
  %20 = load ptr, ptr %5, align 8, !tbaa !55
  %21 = load ptr, ptr %4, align 8, !tbaa !110
  %22 = load ptr, ptr %20, align 8, !tbaa !92
  %23 = getelementptr inbounds ptr, ptr %22, i64 14
  %24 = load ptr, ptr %23, align 8
  %25 = call noundef zeroext i1 %24(ptr noundef nonnull align 8 dereferenceable(88) %20, ptr noundef %21)
  br i1 %25, label %27, label %26

26:                                               ; preds = %19
  store i32 2, ptr %6, align 4
  br label %31

27:                                               ; preds = %19
  br label %28

28:                                               ; preds = %27
  %29 = load ptr, ptr %5, align 8, !tbaa !55
  %30 = call noundef ptr @_ZNK2cv8tinyxml27XMLNode11NextSiblingEv(ptr noundef nonnull align 8 dereferenceable(88) %29)
  store ptr %30, ptr %5, align 8, !tbaa !55
  br label %15, !llvm.loop !112

31:                                               ; preds = %26, %18
  call void @llvm.lifetime.end.p0(i64 8, ptr %5) #17
  br label %32

32:                                               ; preds = %31
  br label %33

33:                                               ; preds = %32, %2
  %34 = load ptr, ptr %4, align 8, !tbaa !110
  %35 = load ptr, ptr %34, align 8, !tbaa !92
  %36 = getelementptr inbounds ptr, ptr %35, i64 3
  %37 = load ptr, ptr %36, align 8
  %38 = call noundef zeroext i1 %37(ptr noundef nonnull align 8 dereferenceable(8) %34, ptr noundef nonnull align 8 dereferenceable(640) %7)
  ret i1 %38
}