; Function Attrs: mustprogress uwtable
define hidden noundef zeroext i1 @_ZNK2cv8tinyxml211XMLDocument6AcceptEPNS0_10XMLVisitorE(ptr noundef nonnull align 8 dereferenceable(640) %0, ptr noundef %1) unnamed_addr #4 align 2 {
  %3 = load ptr, ptr %1, align 8, !tbaa !39
  %4 = getelementptr inbounds nuw i8, ptr %3, i64 16
  %5 = load ptr, ptr %4, align 8
  %6 = tail call noundef zeroext i1 %5(ptr noundef nonnull align 8 dereferenceable(8) %1, ptr noundef nonnull align 8 dereferenceable(640) %0)
  %7 = getelementptr inbounds nuw i8, ptr %0, i64 48
  %.07 = load ptr, ptr %7, align 8
  %.not8 = icmp ne ptr %.07, null
  %or.cond.not = select i1 %6, i1 %.not8, i1 false
  br i1 %or.cond.not, label %.lr.ph, label %.loopexit

8:                                                ; preds = %.lr.ph
  %9 = getelementptr inbounds nuw i8, ptr %.09, i64 72
  %.0 = load ptr, ptr %9, align 8, !tbaa !48
  %.not = icmp eq ptr %.0, null
  br i1 %.not, label %.loopexit, label %.lr.ph, !llvm.loop !96

.lr.ph:                                           ; preds = %2, %8
  %.09 = phi ptr [ %.0, %8 ], [ %.07, %2 ]
  %10 = load ptr, ptr %.09, align 8, !tbaa !39
  %11 = getelementptr inbounds nuw i8, ptr %10, i64 112
  %12 = load ptr, ptr %11, align 8
  %13 = tail call noundef zeroext i1 %12(ptr noundef nonnull align 8 dereferenceable(88) %.09, ptr noundef nonnull %1)
  br i1 %13, label %8, label %.loopexit

.loopexit:                                        ; preds = %.lr.ph, %8, %2
  %14 = load ptr, ptr %1, align 8, !tbaa !39
  %15 = getelementptr inbounds nuw i8, ptr %14, i64 24
  %16 = load ptr, ptr %15, align 8
  %17 = tail call noundef zeroext i1 %16(ptr noundef nonnull align 8 dereferenceable(8) %1, ptr noundef nonnull align 8 dereferenceable(640) %0)
  ret i1 %17
}